target datalayout = "e-m:e-p270:32:32-p271:32:32-p272:64:64-i64:64-i128:128-f80:128-n8:16:32:64-S128"
target triple = "x86_64-pc-linux-gnu"

%struct.anon.4 = type { i64, i64, %struct.elapsed_pass_s, i64, %struct.elapsed_pass_s, i64 }
%struct.elapsed_pass_s = type { i64, i64, i64 }
%struct.json_dumper = type { ptr, ptr, i32, i32, i32, i32, [1100 x i8] }

@.str.1 = private unnamed_addr constant [8 x i8] c"version\00", align 1
@stderr = external global ptr, align 8
@.str.115 = private unnamed_addr constant [5 x i8] c"Main\00", align 1
@.str.116 = private unnamed_addr constant [9 x i8] c"tshark.c\00", align 1
@tshark_elapsed = internal global %struct.anon.4 zeroinitializer, align 8
@__func__.print_elapsed_json = private unnamed_addr constant [19 x i8] c"print_elapsed_json\00", align 1
@.str.327 = private unnamed_addr constant [51 x i8] c"Print timers requested but no timing info provided\00", align 1
@.str.328 = private unnamed_addr constant [5 x i8] c"path\00", align 1
@.str.329 = private unnamed_addr constant [7 x i8] c"filter\00", align 1
@.str.330 = private unnamed_addr constant [10 x i8] c"time_unit\00", align 1
@.str.331 = private unnamed_addr constant [13 x i8] c"microseconds\00", align 1
@.str.332 = private unnamed_addr constant [8 x i8] c"elapsed\00", align 1
@.str.333 = private unnamed_addr constant [4 x i8] c"%ld\00", align 1
@.str.334 = private unnamed_addr constant [15 x i8] c"dfilter_expand\00", align 1
@.str.335 = private unnamed_addr constant [16 x i8] c"dfilter_compile\00", align 1
@.str.336 = private unnamed_addr constant [8 x i8] c"dissect\00", align 1
@.str.337 = private unnamed_addr constant [15 x i8] c"display_filter\00", align 1
@.str.338 = private unnamed_addr constant [12 x i8] c"read_filter\00", align 1

; Function Attrs: null_pointer_is_valid sspstrong uwtable
define internal void @print_elapsed_json(ptr noundef %0, ptr noundef %1) #0 {
  %3 = alloca ptr, align 8
  %4 = alloca ptr, align 8
  %5 = alloca %struct.json_dumper, align 8
  %6 = alloca i32, align 4
  store ptr %0, ptr %3, align 8
  store ptr %1, ptr %4, align 8
  call void @llvm.lifetime.start.p0(i64 1136, ptr %5) #19
  call void @llvm.memset.p0.i64(ptr align 8 %5, i8 0, i64 1136, i1 false)
  %7 = getelementptr inbounds nuw %struct.json_dumper, ptr %5, i32 0, i32 0
  %8 = load ptr, ptr @stderr, align 8
  store ptr %8, ptr %7, align 8
  %9 = getelementptr inbounds nuw %struct.json_dumper, ptr %5, i32 0, i32 2
  store i32 1, ptr %9, align 8
  %10 = load i64, ptr getelementptr inbounds nuw (%struct.anon.4, ptr @tshark_elapsed, i32 0, i32 3), align 8
  %11 = icmp eq i64 %10, 0
  br i1 %11, label %12, label %16

12:                                               ; preds = %2
  br label %13

13:                                               ; preds = %12
  call void (ptr, i32, ptr, i64, ptr, ptr, ...) @ws_log_full(ptr noundef @.str.115, i32 noundef 5, ptr noundef @.str.116, i64 noundef 292, ptr noundef @__func__.print_elapsed_json, ptr noundef @.str.327)
  br label %14

14:                                               ; preds = %13
  br label %15

15:                                               ; preds = %14
  store i32 1, ptr %6, align 4
  br label %46

16:                                               ; preds = %2
  call void @json_dumper_begin_object(ptr noundef %5)
  call void @json_dumper_set_member_name(ptr noundef %5, ptr noundef @.str.1)
  %17 = call ptr @get_ws_vcs_version_info_short()
  call void @json_dumper_value_string(ptr noundef %5, ptr noundef %17)
  %18 = load ptr, ptr %3, align 8
  %19 = icmp ne ptr %18, null
  br i1 %19, label %20, label %22

20:                                               ; preds = %16
  call void @json_dumper_set_member_name(ptr noundef %5, ptr noundef @.str.328)
  %21 = load ptr, ptr %3, align 8
  call void @json_dumper_value_string(ptr noundef %5, ptr noundef %21)
  br label %22

22:                                               ; preds = %20, %16
  %23 = load ptr, ptr %4, align 8
  %24 = icmp ne ptr %23, null
  br i1 %24, label %25, label %27

25:                                               ; preds = %22
  call void @json_dumper_set_member_name(ptr noundef %5, ptr noundef @.str.329)
  %26 = load ptr, ptr %4, align 8
  call void @json_dumper_value_string(ptr noundef %5, ptr noundef %26)
  br label %27

27:                                               ; preds = %25, %22
  call void @json_dumper_set_member_name(ptr noundef %5, ptr noundef @.str.330)
  call void @json_dumper_value_string(ptr noundef %5, ptr noundef @.str.331)
  call void @json_dumper_set_member_name(ptr noundef %5, ptr noundef @.str.332)
  %28 = load i64, ptr getelementptr inbounds nuw (%struct.anon.4, ptr @tshark_elapsed, i32 0, i32 3), align 8
  %29 = load i64, ptr getelementptr inbounds nuw (%struct.anon.4, ptr @tshark_elapsed, i32 0, i32 5), align 8
  %30 = add i64 %28, %29
  call void (ptr, ptr, ...) @json_dumper_value_anyf(ptr noundef %5, ptr noundef @.str.333, i64 noundef %30)
  call void @json_dumper_set_member_name(ptr noundef %5, ptr noundef @.str.334)
  %31 = load i64, ptr @tshark_elapsed, align 8
  call void (ptr, ptr, ...) @json_dumper_value_anyf(ptr noundef %5, ptr noundef @.str.333, i64 noundef %31)
  call void @json_dumper_set_member_name(ptr noundef %5, ptr noundef @.str.335)
  %32 = load i64, ptr getelementptr inbounds nuw (%struct.anon.4, ptr @tshark_elapsed, i32 0, i32 1), align 8
  call void (ptr, ptr, ...) @json_dumper_value_anyf(ptr noundef %5, ptr noundef @.str.333, i64 noundef %32)
  call void @json_dumper_begin_array(ptr noundef %5)
  call void @json_dumper_begin_object(ptr noundef %5)
  call void @json_dumper_set_member_name(ptr noundef %5, ptr noundef @.str.332)
  %33 = load i64, ptr getelementptr inbounds nuw (%struct.anon.4, ptr @tshark_elapsed, i32 0, i32 3), align 8
  call void (ptr, ptr, ...) @json_dumper_value_anyf(ptr noundef %5, ptr noundef @.str.333, i64 noundef %33)
  call void @json_dumper_set_member_name(ptr noundef %5, ptr noundef @.str.336)
  %34 = load i64, ptr getelementptr inbounds nuw (%struct.anon.4, ptr @tshark_elapsed, i32 0, i32 2), align 8
  call void (ptr, ptr, ...) @json_dumper_value_anyf(ptr noundef %5, ptr noundef @.str.333, i64 noundef %34)
  call void @json_dumper_set_member_name(ptr noundef %5, ptr noundef @.str.337)
  %35 = load i64, ptr getelementptr inbounds nuw (%struct.elapsed_pass_s, ptr getelementptr inbounds nuw (%struct.anon.4, ptr @tshark_elapsed, i32 0, i32 2), i32 0, i32 2), align 8
  call void (ptr, ptr, ...) @json_dumper_value_anyf(ptr noundef %5, ptr noundef @.str.333, i64 noundef %35)
  call void @json_dumper_set_member_name(ptr noundef %5, ptr noundef @.str.338)
  %36 = load i64, ptr getelementptr inbounds nuw (%struct.elapsed_pass_s, ptr getelementptr inbounds nuw (%struct.anon.4, ptr @tshark_elapsed, i32 0, i32 2), i32 0, i32 1), align 8
  call void (ptr, ptr, ...) @json_dumper_value_anyf(ptr noundef %5, ptr noundef @.str.333, i64 noundef %36)
  call void @json_dumper_end_object(ptr noundef %5)
  %37 = load i64, ptr getelementptr inbounds nuw (%struct.anon.4, ptr @tshark_elapsed, i32 0, i32 5), align 8
  %38 = icmp ne i64 %37, 0
  br i1 %38, label %39, label %44

39:                                               ; preds = %27
  call void @json_dumper_begin_object(ptr noundef %5)
  call void @json_dumper_set_member_name(ptr noundef %5, ptr noundef @.str.332)
  %40 = load i64, ptr getelementptr inbounds nuw (%struct.anon.4, ptr @tshark_elapsed, i32 0, i32 5), align 8
  call void (ptr, ptr, ...) @json_dumper_value_anyf(ptr noundef %5, ptr noundef @.str.333, i64 noundef %40)
  call void @json_dumper_set_member_name(ptr noundef %5, ptr noundef @.str.336)
  %41 = load i64, ptr getelementptr inbounds nuw (%struct.anon.4, ptr @tshark_elapsed, i32 0, i32 4), align 8
  call void (ptr, ptr, ...) @json_dumper_value_anyf(ptr noundef %5, ptr noundef @.str.333, i64 noundef %41)
  call void @json_dumper_set_member_name(ptr noundef %5, ptr noundef @.str.337)
  %42 = load i64, ptr getelementptr inbounds nuw (%struct.elapsed_pass_s, ptr getelementptr inbounds nuw (%struct.anon.4, ptr @tshark_elapsed, i32 0, i32 4), i32 0, i32 2), align 8
  call void (ptr, ptr, ...) @json_dumper_value_anyf(ptr noundef %5, ptr noundef @.str.333, i64 noundef %42)
  call void @json_dumper_set_member_name(ptr noundef %5, ptr noundef @.str.338)
  %43 = load i64, ptr getelementptr inbounds nuw (%struct.elapsed_pass_s, ptr getelementptr inbounds nuw (%struct.anon.4, ptr @tshark_elapsed, i32 0, i32 4), i32 0, i32 1), align 8
  call void (ptr, ptr, ...) @json_dumper_value_anyf(ptr noundef %5, ptr noundef @.str.333, i64 noundef %43)
  call void @json_dumper_end_object(ptr noundef %5)
  br label %44

44:                                               ; preds = %39, %27
  call void @json_dumper_end_array(ptr noundef %5)
  call void @json_dumper_end_object(ptr noundef %5)
  %45 = call zeroext i1 @json_dumper_finish(ptr noundef %5)
  store i32 0, ptr %6, align 4
  br label %46

46:                                               ; preds = %44, %15
  call void @llvm.lifetime.end.p0(i64 1136, ptr %5) #19
  %47 = load i32, ptr %6, align 4
  switch i32 %47, label %49 [
    i32 0, label %48
    i32 1, label %48
  ]

48:                                               ; preds = %46, %46
  ret void

49:                                               ; preds = %46
  unreachable
}