; Function Attrs: null_pointer_is_valid sspstrong uwtable
define internal fastcc void @print_elapsed_json(ptr noundef %0, ptr noundef %1) unnamed_addr #0 {
  %3 = alloca %struct.json_dumper, align 8
  call void @llvm.lifetime.start.p0(i64 1136, ptr nonnull %3) #20
  %4 = getelementptr inbounds nuw i8, ptr %3, i64 8
  call void @llvm.memset.p0.i64(ptr noundef nonnull align 8 dereferenceable(1136) %4, i8 0, i64 1128, i1 false)
  %5 = load ptr, ptr @stderr, align 8
  store ptr %5, ptr %3, align 8
  %6 = getelementptr inbounds nuw i8, ptr %3, i64 16
  store i32 1, ptr %6, align 8
  %7 = load i64, ptr @tshark_elapsed.5, align 8
  %8 = icmp eq i64 %7, 0
  br i1 %8, label %9, label %10

9:                                                ; preds = %2
  tail call void (ptr, i32, ptr, i64, ptr, ptr, ...) @ws_log_full(ptr noundef nonnull @.str.115, i32 noundef 5, ptr noundef nonnull @.str.116, i64 noundef 292, ptr noundef nonnull @__func__.print_elapsed_json, ptr noundef nonnull @.str.327)
  br label %32

10:                                               ; preds = %2
  call void @json_dumper_begin_object(ptr noundef nonnull %3)
  call void @json_dumper_set_member_name(ptr noundef nonnull %3, ptr noundef nonnull @.str.1)
  %11 = call ptr @get_ws_vcs_version_info_short()
  call void @json_dumper_value_string(ptr noundef nonnull %3, ptr noundef %11)
  %.not = icmp eq ptr %0, null
  br i1 %.not, label %13, label %12

12:                                               ; preds = %10
  call void @json_dumper_set_member_name(ptr noundef nonnull %3, ptr noundef nonnull @.str.328)
  call void @json_dumper_value_string(ptr noundef nonnull %3, ptr noundef nonnull %0)
  br label %13

13:                                               ; preds = %12, %10
  %.not5 = icmp eq ptr %1, null
  br i1 %.not5, label %15, label %14

14:                                               ; preds = %13
  call void @json_dumper_set_member_name(ptr noundef nonnull %3, ptr noundef nonnull @.str.329)
  call void @json_dumper_value_string(ptr noundef nonnull %3, ptr noundef nonnull %1)
  br label %15

15:                                               ; preds = %14, %13
  call void @json_dumper_set_member_name(ptr noundef nonnull %3, ptr noundef nonnull @.str.330)
  call void @json_dumper_value_string(ptr noundef nonnull %3, ptr noundef nonnull @.str.331)
  call void @json_dumper_set_member_name(ptr noundef nonnull %3, ptr noundef nonnull @.str.332)
  %16 = load i64, ptr @tshark_elapsed.5, align 8
  %17 = load i64, ptr @tshark_elapsed.9, align 8
  %18 = add i64 %17, %16
  call void (ptr, ptr, ...) @json_dumper_value_anyf(ptr noundef nonnull %3, ptr noundef nonnull @.str.333, i64 noundef %18)
  call void @json_dumper_set_member_name(ptr noundef nonnull %3, ptr noundef nonnull @.str.334)
  %19 = load i64, ptr @tshark_elapsed.0, align 8
  call void (ptr, ptr, ...) @json_dumper_value_anyf(ptr noundef nonnull %3, ptr noundef nonnull @.str.333, i64 noundef %19)
  call void @json_dumper_set_member_name(ptr noundef nonnull %3, ptr noundef nonnull @.str.335)
  %20 = load i64, ptr @tshark_elapsed.1, align 8
  call void (ptr, ptr, ...) @json_dumper_value_anyf(ptr noundef nonnull %3, ptr noundef nonnull @.str.333, i64 noundef %20)
  call void @json_dumper_begin_array(ptr noundef nonnull %3)
  call void @json_dumper_begin_object(ptr noundef nonnull %3)
  call void @json_dumper_set_member_name(ptr noundef nonnull %3, ptr noundef nonnull @.str.332)
  %21 = load i64, ptr @tshark_elapsed.5, align 8
  call void (ptr, ptr, ...) @json_dumper_value_anyf(ptr noundef nonnull %3, ptr noundef nonnull @.str.333, i64 noundef %21)
  call void @json_dumper_set_member_name(ptr noundef nonnull %3, ptr noundef nonnull @.str.336)
  %22 = load i64, ptr @tshark_elapsed.2, align 8
  call void (ptr, ptr, ...) @json_dumper_value_anyf(ptr noundef nonnull %3, ptr noundef nonnull @.str.333, i64 noundef %22)
  call void @json_dumper_set_member_name(ptr noundef nonnull %3, ptr noundef nonnull @.str.337)
  %23 = load i64, ptr @tshark_elapsed.4, align 8
  call void (ptr, ptr, ...) @json_dumper_value_anyf(ptr noundef nonnull %3, ptr noundef nonnull @.str.333, i64 noundef %23)
  call void @json_dumper_set_member_name(ptr noundef nonnull %3, ptr noundef nonnull @.str.338)
  %24 = load i64, ptr @tshark_elapsed.3, align 8
  call void (ptr, ptr, ...) @json_dumper_value_anyf(ptr noundef nonnull %3, ptr noundef nonnull @.str.333, i64 noundef %24)
  call void @json_dumper_end_object(ptr noundef nonnull %3)
  %25 = load i64, ptr @tshark_elapsed.9, align 8
  %.not6 = icmp eq i64 %25, 0
  br i1 %.not6, label %30, label %26

26:                                               ; preds = %15
  call void @json_dumper_begin_object(ptr noundef nonnull %3)
  call void @json_dumper_set_member_name(ptr noundef nonnull %3, ptr noundef nonnull @.str.332)
  %27 = load i64, ptr @tshark_elapsed.9, align 8
  call void (ptr, ptr, ...) @json_dumper_value_anyf(ptr noundef nonnull %3, ptr noundef nonnull @.str.333, i64 noundef %27)
  call void @json_dumper_set_member_name(ptr noundef nonnull %3, ptr noundef nonnull @.str.336)
  %28 = load i64, ptr @tshark_elapsed.6, align 8
  call void (ptr, ptr, ...) @json_dumper_value_anyf(ptr noundef nonnull %3, ptr noundef nonnull @.str.333, i64 noundef %28)
  call void @json_dumper_set_member_name(ptr noundef nonnull %3, ptr noundef nonnull @.str.337)
  %29 = load i64, ptr @tshark_elapsed.8, align 8
  call void (ptr, ptr, ...) @json_dumper_value_anyf(ptr noundef nonnull %3, ptr noundef nonnull @.str.333, i64 noundef %29)
  call void @json_dumper_set_member_name(ptr noundef nonnull %3, ptr noundef nonnull @.str.338)
  call void (ptr, ptr, ...) @json_dumper_value_anyf(ptr noundef nonnull %3, ptr noundef nonnull @.str.333, i64 noundef 0)
  call void @json_dumper_end_object(ptr noundef nonnull %3)
  br label %30

30:                                               ; preds = %26, %15
  call void @json_dumper_end_array(ptr noundef nonnull %3)
  call void @json_dumper_end_object(ptr noundef nonnull %3)
  %31 = call zeroext i1 @json_dumper_finish(ptr noundef nonnull %3)
  br label %32

32:                                               ; preds = %30, %9
  call void @llvm.lifetime.end.p0(i64 1136, ptr nonnull %3) #20
  ret void
}